target datalayout = "e-m:e-p270:32:32-p271:32:32-p272:64:64-i64:64-i128:128-f80:128-n8:16:32:64-S128"
target triple = "x86_64-pc-linux-gnu"

%"class.gmx::TimeUnitBehavior" = type { %"class.gmx::IOptionsBehavior", i32, ptr }
%"class.gmx::IOptionsBehavior" = type { ptr }

; Function Attrs: mustprogress nounwind uwtable
define void @_ZN3gmx16TimeUnitBehavior11setTimeUnitENS_8TimeUnitE(ptr noundef nonnull align 8 dereferenceable(24) %0, i32 noundef %1) #0 align 2 {
  %3 = alloca ptr, align 8
  %4 = alloca i32, align 4
  store ptr %0, ptr %3, align 8, !tbaa !20
  store i32 %1, ptr %4, align 4, !tbaa !11
  %5 = load ptr, ptr %3, align 8
  %6 = load i32, ptr %4, align 4, !tbaa !11
  %7 = getelementptr inbounds nuw %"class.gmx::TimeUnitBehavior", ptr %5, i32 0, i32 1
  store i32 %6, ptr %7, align 8, !tbaa !24
  %8 = getelementptr inbounds nuw %"class.gmx::TimeUnitBehavior", ptr %5, i32 0, i32 2
  %9 = load ptr, ptr %8, align 8, !tbaa !27
  %10 = icmp ne ptr %9, null
  br i1 %10, label %11, label %15

11:                                               ; preds = %2
  %12 = load i32, ptr %4, align 4, !tbaa !11
  %13 = getelementptr inbounds nuw %"class.gmx::TimeUnitBehavior", ptr %5, i32 0, i32 2
  %14 = load ptr, ptr %13, align 8, !tbaa !27
  store i32 %12, ptr %14, align 4, !tbaa !11
  br label %15

15:                                               ; preds = %11, %2
  ret void
}