; Function Attrs: mustprogress nofree norecurse nosync nounwind willreturn memory(write, argmem: readwrite, inaccessiblemem: none) uwtable
define void @_ZN3gmx16TimeUnitBehavior11setTimeUnitENS_8TimeUnitE(ptr noundef nonnull align 8 captures(none) dereferenceable(24) initializes((8, 12)) %0, i32 noundef %1) local_unnamed_addr #2 align 2 {
  %3 = getelementptr inbounds nuw i8, ptr %0, i64 8
  store i32 %1, ptr %3, align 8, !tbaa !15
  %4 = getelementptr inbounds nuw i8, ptr %0, i64 16
  %5 = load ptr, ptr %4, align 8, !tbaa !18
  %.not = icmp eq ptr %5, null
  br i1 %.not, label %7, label %6

6:                                                ; preds = %2
  store i32 %1, ptr %5, align 4, !tbaa !19
  br label %7

7:                                                ; preds = %6, %2
  ret void
}